target datalayout = "e-m:e-p270:32:32-p271:32:32-p272:64:64-i64:64-i128:128-f80:128-n8:16:32:64-S128"
target triple = "x86_64-pc-linux-gnu"

%struct.lv_area_t = type { i32, i32, i32, i32 }
%struct.lv_point_t = type { i32, i32 }

; Function Attrs: nounwind uwtable
define internal zeroext i1 @lv_point_within_circle(ptr noundef %0, ptr noundef %1) #0 {
  %3 = alloca i1, align 1
  %4 = alloca ptr, align 8
  %5 = alloca ptr, align 8
  %6 = alloca i32, align 4
  %7 = alloca i32, align 4
  %8 = alloca i32, align 4
  %9 = alloca i32, align 4
  %10 = alloca i32, align 4
  %11 = alloca i32, align 4
  %12 = alloca i32, align 4
  %13 = alloca i32, align 4
  store ptr %0, ptr %4, align 8, !tbaa !3
  store ptr %1, ptr %5, align 8, !tbaa !3
  call void @llvm.lifetime.start.p0(i64 4, ptr %6) #5
  %14 = load ptr, ptr %4, align 8, !tbaa !3
  %15 = getelementptr inbounds nuw %struct.lv_area_t, ptr %14, i32 0, i32 2
  %16 = load i32, ptr %15, align 4, !tbaa !12
  %17 = load ptr, ptr %4, align 8, !tbaa !3
  %18 = getelementptr inbounds nuw %struct.lv_area_t, ptr %17, i32 0, i32 0
  %19 = load i32, ptr %18, align 4, !tbaa !9
  %20 = sub nsw i32 %16, %19
  %21 = sdiv i32 %20, 2
  store i32 %21, ptr %6, align 4, !tbaa !7
  call void @llvm.lifetime.start.p0(i64 4, ptr %7) #5
  %22 = load ptr, ptr %4, align 8, !tbaa !3
  %23 = getelementptr inbounds nuw %struct.lv_area_t, ptr %22, i32 0, i32 0
  %24 = load i32, ptr %23, align 4, !tbaa !9
  %25 = load i32, ptr %6, align 4, !tbaa !7
  %26 = add nsw i32 %24, %25
  store i32 %26, ptr %7, align 4, !tbaa !7
  call void @llvm.lifetime.start.p0(i64 4, ptr %8) #5
  %27 = load ptr, ptr %4, align 8, !tbaa !3
  %28 = getelementptr inbounds nuw %struct.lv_area_t, ptr %27, i32 0, i32 1
  %29 = load i32, ptr %28, align 4, !tbaa !11
  %30 = load i32, ptr %6, align 4, !tbaa !7
  %31 = add nsw i32 %29, %30
  store i32 %31, ptr %8, align 4, !tbaa !7
  call void @llvm.lifetime.start.p0(i64 4, ptr %9) #5
  %32 = load ptr, ptr %5, align 8, !tbaa !3
  %33 = getelementptr inbounds nuw %struct.lv_point_t, ptr %32, i32 0, i32 0
  %34 = load i32, ptr %33, align 4, !tbaa !20
  %35 = load i32, ptr %7, align 4, !tbaa !7
  %36 = sub nsw i32 %34, %35
  store i32 %36, ptr %9, align 4, !tbaa !7
  call void @llvm.lifetime.start.p0(i64 4, ptr %10) #5
  %37 = load ptr, ptr %5, align 8, !tbaa !3
  %38 = getelementptr inbounds nuw %struct.lv_point_t, ptr %37, i32 0, i32 1
  %39 = load i32, ptr %38, align 4, !tbaa !22
  %40 = load i32, ptr %8, align 4, !tbaa !7
  %41 = sub nsw i32 %39, %40
  store i32 %41, ptr %10, align 4, !tbaa !7
  call void @llvm.lifetime.start.p0(i64 4, ptr %11) #5
  %42 = load i32, ptr %6, align 4, !tbaa !7
  %43 = load i32, ptr %6, align 4, !tbaa !7
  %44 = mul nsw i32 %42, %43
  store i32 %44, ptr %11, align 4, !tbaa !7
  call void @llvm.lifetime.start.p0(i64 4, ptr %12) #5
  %45 = load i32, ptr %9, align 4, !tbaa !7
  %46 = load i32, ptr %9, align 4, !tbaa !7
  %47 = mul nsw i32 %45, %46
  %48 = load i32, ptr %10, align 4, !tbaa !7
  %49 = load i32, ptr %10, align 4, !tbaa !7
  %50 = mul nsw i32 %48, %49
  %51 = add nsw i32 %47, %50
  store i32 %51, ptr %12, align 4, !tbaa !7
  %52 = load i32, ptr %12, align 4, !tbaa !7
  %53 = load i32, ptr %11, align 4, !tbaa !7
  %54 = icmp ule i32 %52, %53
  br i1 %54, label %55, label %56

55:                                               ; preds = %2
  store i1 true, ptr %3, align 1
  store i32 1, ptr %13, align 4
  br label %57

56:                                               ; preds = %2
  store i1 false, ptr %3, align 1
  store i32 1, ptr %13, align 4
  br label %57

57:                                               ; preds = %56, %55
  call void @llvm.lifetime.end.p0(i64 4, ptr %12) #5
  call void @llvm.lifetime.end.p0(i64 4, ptr %11) #5
  call void @llvm.lifetime.end.p0(i64 4, ptr %10) #5
  call void @llvm.lifetime.end.p0(i64 4, ptr %9) #5
  call void @llvm.lifetime.end.p0(i64 4, ptr %8) #5
  call void @llvm.lifetime.end.p0(i64 4, ptr %7) #5
  call void @llvm.lifetime.end.p0(i64 4, ptr %6) #5
  %58 = load i1, ptr %3, align 1
  ret i1 %58
}

; Function Attrs: nounwind uwtable
define i32 @lv_area_get_height(ptr noundef %0) #0 {
  %2 = alloca ptr, align 8
  store ptr %0, ptr %2, align 8, !tbaa !3
  %3 = load ptr, ptr %2, align 8, !tbaa !3
  %4 = getelementptr inbounds nuw %struct.lv_area_t, ptr %3, i32 0, i32 3
  %5 = load i32, ptr %4, align 4, !tbaa !13
  %6 = load ptr, ptr %2, align 8, !tbaa !3
  %7 = getelementptr inbounds nuw %struct.lv_area_t, ptr %6, i32 0, i32 1
  %8 = load i32, ptr %7, align 4, !tbaa !11
  %9 = sub nsw i32 %5, %8
  %10 = add nsw i32 %9, 1
  ret i32 %10
}

; Function Attrs: nounwind uwtable
define i32 @lv_area_get_width(ptr noundef %0) #0 {
  %2 = alloca ptr, align 8
  store ptr %0, ptr %2, align 8, !tbaa !3
  %3 = load ptr, ptr %2, align 8, !tbaa !3
  %4 = getelementptr inbounds nuw %struct.lv_area_t, ptr %3, i32 0, i32 2
  %5 = load i32, ptr %4, align 4, !tbaa !12
  %6 = load ptr, ptr %2, align 8, !tbaa !3
  %7 = getelementptr inbounds nuw %struct.lv_area_t, ptr %6, i32 0, i32 0
  %8 = load i32, ptr %7, align 4, !tbaa !9
  %9 = sub nsw i32 %5, %8
  %10 = add nsw i32 %9, 1
  ret i32 %10
}

; Function Attrs: nounwind uwtable
define zeroext i1 @lv_area_is_point_on(ptr noundef %0, ptr noundef %1, i32 noundef %2) #0 {
  %4 = alloca i1, align 1
  %5 = alloca ptr, align 8
  %6 = alloca ptr, align 8
  %7 = alloca i32, align 4
  %8 = alloca i8, align 1
  %9 = alloca i32, align 4
  %10 = alloca i32, align 4
  %11 = alloca i32, align 4
  %12 = alloca i32, align 4
  %13 = alloca %struct.lv_area_t, align 4
  store ptr %0, ptr %5, align 8, !tbaa !3
  store ptr %1, ptr %6, align 8, !tbaa !3
  store i32 %2, ptr %7, align 4, !tbaa !7
  call void @llvm.lifetime.start.p0(i64 1, ptr %8) #5
  store i8 0, ptr %8, align 1, !tbaa !14
  %14 = load ptr, ptr %6, align 8, !tbaa !3
  %15 = getelementptr inbounds nuw %struct.lv_point_t, ptr %14, i32 0, i32 0
  %16 = load i32, ptr %15, align 4, !tbaa !20
  %17 = load ptr, ptr %5, align 8, !tbaa !3
  %18 = getelementptr inbounds nuw %struct.lv_area_t, ptr %17, i32 0, i32 0
  %19 = load i32, ptr %18, align 4, !tbaa !9
  %20 = icmp sge i32 %16, %19
  br i1 %20, label %21, label %46

21:                                               ; preds = %3
  %22 = load ptr, ptr %6, align 8, !tbaa !3
  %23 = getelementptr inbounds nuw %struct.lv_point_t, ptr %22, i32 0, i32 0
  %24 = load i32, ptr %23, align 4, !tbaa !20
  %25 = load ptr, ptr %5, align 8, !tbaa !3
  %26 = getelementptr inbounds nuw %struct.lv_area_t, ptr %25, i32 0, i32 2
  %27 = load i32, ptr %26, align 4, !tbaa !12
  %28 = icmp sle i32 %24, %27
  br i1 %28, label %29, label %46

29:                                               ; preds = %21
  %30 = load ptr, ptr %6, align 8, !tbaa !3
  %31 = getelementptr inbounds nuw %struct.lv_point_t, ptr %30, i32 0, i32 1
  %32 = load i32, ptr %31, align 4, !tbaa !22
  %33 = load ptr, ptr %5, align 8, !tbaa !3
  %34 = getelementptr inbounds nuw %struct.lv_area_t, ptr %33, i32 0, i32 1
  %35 = load i32, ptr %34, align 4, !tbaa !11
  %36 = icmp sge i32 %32, %35
  br i1 %36, label %37, label %46

37:                                               ; preds = %29
  %38 = load ptr, ptr %6, align 8, !tbaa !3
  %39 = getelementptr inbounds nuw %struct.lv_point_t, ptr %38, i32 0, i32 1
  %40 = load i32, ptr %39, align 4, !tbaa !22
  %41 = load ptr, ptr %5, align 8, !tbaa !3
  %42 = getelementptr inbounds nuw %struct.lv_area_t, ptr %41, i32 0, i32 3
  %43 = load i32, ptr %42, align 4, !tbaa !13
  %44 = icmp sle i32 %40, %43
  br i1 %44, label %45, label %46

45:                                               ; preds = %37
  store i8 1, ptr %8, align 1, !tbaa !14
  br label %46

46:                                               ; preds = %45, %37, %29, %21, %3
  %47 = load i8, ptr %8, align 1, !tbaa !14, !range !16, !noundef !17
  %48 = trunc i8 %47 to i1
  br i1 %48, label %50, label %49

49:                                               ; preds = %46
  store i1 false, ptr %4, align 1
  store i32 1, ptr %9, align 4
  br label %183

50:                                               ; preds = %46
  %51 = load i32, ptr %7, align 4, !tbaa !7
  %52 = icmp sle i32 %51, 0
  br i1 %52, label %53, label %54

53:                                               ; preds = %50
  store i1 true, ptr %4, align 1
  store i32 1, ptr %9, align 4
  br label %183

54:                                               ; preds = %50
  call void @llvm.lifetime.start.p0(i64 4, ptr %10) #5
  %55 = load ptr, ptr %5, align 8, !tbaa !3
  %56 = call i32 @lv_area_get_width(ptr noundef %55)
  %57 = sdiv i32 %56, 2
  store i32 %57, ptr %10, align 4, !tbaa !7
  call void @llvm.lifetime.start.p0(i64 4, ptr %11) #5
  %58 = load ptr, ptr %5, align 8, !tbaa !3
  %59 = call i32 @lv_area_get_height(ptr noundef %58)
  %60 = sdiv i32 %59, 2
  store i32 %60, ptr %11, align 4, !tbaa !7
  call void @llvm.lifetime.start.p0(i64 4, ptr %12) #5
  %61 = load i32, ptr %10, align 4, !tbaa !7
  %62 = load i32, ptr %11, align 4, !tbaa !7
  %63 = icmp slt i32 %61, %62
  br i1 %63, label %64, label %66

64:                                               ; preds = %54
  %65 = load i32, ptr %10, align 4, !tbaa !7
  br label %68

66:                                               ; preds = %54
  %67 = load i32, ptr %11, align 4, !tbaa !7
  br label %68

68:                                               ; preds = %66, %64
  %69 = phi i32 [ %65, %64 ], [ %67, %66 ]
  store i32 %69, ptr %12, align 4, !tbaa !7
  %70 = load i32, ptr %7, align 4, !tbaa !7
  %71 = load i32, ptr %12, align 4, !tbaa !7
  %72 = icmp sgt i32 %70, %71
  br i1 %72, label %73, label %75

73:                                               ; preds = %68
  %74 = load i32, ptr %12, align 4, !tbaa !7
  store i32 %74, ptr %7, align 4, !tbaa !7
  br label %75

75:                                               ; preds = %73, %68
  call void @llvm.lifetime.start.p0(i64 16, ptr %13) #5
  %76 = load ptr, ptr %5, align 8, !tbaa !3
  %77 = getelementptr inbounds nuw %struct.lv_area_t, ptr %76, i32 0, i32 0
  %78 = load i32, ptr %77, align 4, !tbaa !9
  %79 = getelementptr inbounds nuw %struct.lv_area_t, ptr %13, i32 0, i32 0
  store i32 %78, ptr %79, align 4, !tbaa !9
  %80 = load ptr, ptr %5, align 8, !tbaa !3
  %81 = getelementptr inbounds nuw %struct.lv_area_t, ptr %80, i32 0, i32 0
  %82 = load i32, ptr %81, align 4, !tbaa !9
  %83 = load i32, ptr %7, align 4, !tbaa !7
  %84 = add nsw i32 %82, %83
  %85 = getelementptr inbounds nuw %struct.lv_area_t, ptr %13, i32 0, i32 2
  store i32 %84, ptr %85, align 4, !tbaa !12
  %86 = load ptr, ptr %5, align 8, !tbaa !3
  %87 = getelementptr inbounds nuw %struct.lv_area_t, ptr %86, i32 0, i32 1
  %88 = load i32, ptr %87, align 4, !tbaa !11
  %89 = getelementptr inbounds nuw %struct.lv_area_t, ptr %13, i32 0, i32 1
  store i32 %88, ptr %89, align 4, !tbaa !11
  %90 = load ptr, ptr %5, align 8, !tbaa !3
  %91 = getelementptr inbounds nuw %struct.lv_area_t, ptr %90, i32 0, i32 1
  %92 = load i32, ptr %91, align 4, !tbaa !11
  %93 = load i32, ptr %7, align 4, !tbaa !7
  %94 = add nsw i32 %92, %93
  %95 = getelementptr inbounds nuw %struct.lv_area_t, ptr %13, i32 0, i32 3
  store i32 %94, ptr %95, align 4, !tbaa !13
  %96 = load ptr, ptr %6, align 8, !tbaa !3
  %97 = call zeroext i1 @lv_area_is_point_on(ptr noundef %13, ptr noundef %96, i32 noundef 0)
  br i1 %97, label %98, label %109

98:                                               ; preds = %75
  %99 = load i32, ptr %7, align 4, !tbaa !7
  %100 = getelementptr inbounds nuw %struct.lv_area_t, ptr %13, i32 0, i32 2
  %101 = load i32, ptr %100, align 4, !tbaa !12
  %102 = add nsw i32 %101, %99
  store i32 %102, ptr %100, align 4, !tbaa !12
  %103 = load i32, ptr %7, align 4, !tbaa !7
  %104 = getelementptr inbounds nuw %struct.lv_area_t, ptr %13, i32 0, i32 3
  %105 = load i32, ptr %104, align 4, !tbaa !13
  %106 = add nsw i32 %105, %103
  store i32 %106, ptr %104, align 4, !tbaa !13
  %107 = load ptr, ptr %6, align 8, !tbaa !3
  %108 = call zeroext i1 @lv_point_within_circle(ptr noundef %13, ptr noundef %107)
  store i1 %108, ptr %4, align 1
  store i32 1, ptr %9, align 4
  br label %182

109:                                              ; preds = %75
  %110 = load ptr, ptr %5, align 8, !tbaa !3
  %111 = getelementptr inbounds nuw %struct.lv_area_t, ptr %110, i32 0, i32 3
  %112 = load i32, ptr %111, align 4, !tbaa !13
  %113 = load i32, ptr %7, align 4, !tbaa !7
  %114 = sub nsw i32 %112, %113
  %115 = getelementptr inbounds nuw %struct.lv_area_t, ptr %13, i32 0, i32 1
  store i32 %114, ptr %115, align 4, !tbaa !11
  %116 = load ptr, ptr %5, align 8, !tbaa !3
  %117 = getelementptr inbounds nuw %struct.lv_area_t, ptr %116, i32 0, i32 3
  %118 = load i32, ptr %117, align 4, !tbaa !13
  %119 = getelementptr inbounds nuw %struct.lv_area_t, ptr %13, i32 0, i32 3
  store i32 %118, ptr %119, align 4, !tbaa !13
  %120 = load ptr, ptr %6, align 8, !tbaa !3
  %121 = call zeroext i1 @lv_area_is_point_on(ptr noundef %13, ptr noundef %120, i32 noundef 0)
  br i1 %121, label %122, label %133

122:                                              ; preds = %109
  %123 = load i32, ptr %7, align 4, !tbaa !7
  %124 = getelementptr inbounds nuw %struct.lv_area_t, ptr %13, i32 0, i32 2
  %125 = load i32, ptr %124, align 4, !tbaa !12
  %126 = add nsw i32 %125, %123
  store i32 %126, ptr %124, align 4, !tbaa !12
  %127 = load i32, ptr %7, align 4, !tbaa !7
  %128 = getelementptr inbounds nuw %struct.lv_area_t, ptr %13, i32 0, i32 1
  %129 = load i32, ptr %128, align 4, !tbaa !11
  %130 = sub nsw i32 %129, %127
  store i32 %130, ptr %128, align 4, !tbaa !11
  %131 = load ptr, ptr %6, align 8, !tbaa !3
  %132 = call zeroext i1 @lv_point_within_circle(ptr noundef %13, ptr noundef %131)
  store i1 %132, ptr %4, align 1
  store i32 1, ptr %9, align 4
  br label %182

133:                                              ; preds = %109
  %134 = load ptr, ptr %5, align 8, !tbaa !3
  %135 = getelementptr inbounds nuw %struct.lv_area_t, ptr %134, i32 0, i32 2
  %136 = load i32, ptr %135, align 4, !tbaa !12
  %137 = load i32, ptr %7, align 4, !tbaa !7
  %138 = sub nsw i32 %136, %137
  %139 = getelementptr inbounds nuw %struct.lv_area_t, ptr %13, i32 0, i32 0
  store i32 %138, ptr %139, align 4, !tbaa !9
  %140 = load ptr, ptr %5, align 8, !tbaa !3
  %141 = getelementptr inbounds nuw %struct.lv_area_t, ptr %140, i32 0, i32 2
  %142 = load i32, ptr %141, align 4, !tbaa !12
  %143 = getelementptr inbounds nuw %struct.lv_area_t, ptr %13, i32 0, i32 2
  store i32 %142, ptr %143, align 4, !tbaa !12
  %144 = load ptr, ptr %6, align 8, !tbaa !3
  %145 = call zeroext i1 @lv_area_is_point_on(ptr noundef %13, ptr noundef %144, i32 noundef 0)
  br i1 %145, label %146, label %157

146:                                              ; preds = %133
  %147 = load i32, ptr %7, align 4, !tbaa !7
  %148 = getelementptr inbounds nuw %struct.lv_area_t, ptr %13, i32 0, i32 0
  %149 = load i32, ptr %148, align 4, !tbaa !9
  %150 = sub nsw i32 %149, %147
  store i32 %150, ptr %148, align 4, !tbaa !9
  %151 = load i32, ptr %7, align 4, !tbaa !7
  %152 = getelementptr inbounds nuw %struct.lv_area_t, ptr %13, i32 0, i32 1
  %153 = load i32, ptr %152, align 4, !tbaa !11
  %154 = sub nsw i32 %153, %151
  store i32 %154, ptr %152, align 4, !tbaa !11
  %155 = load ptr, ptr %6, align 8, !tbaa !3
  %156 = call zeroext i1 @lv_point_within_circle(ptr noundef %13, ptr noundef %155)
  store i1 %156, ptr %4, align 1
  store i32 1, ptr %9, align 4
  br label %182

157:                                              ; preds = %133
  %158 = load ptr, ptr %5, align 8, !tbaa !3
  %159 = getelementptr inbounds nuw %struct.lv_area_t, ptr %158, i32 0, i32 1
  %160 = load i32, ptr %159, align 4, !tbaa !11
  %161 = getelementptr inbounds nuw %struct.lv_area_t, ptr %13, i32 0, i32 1
  store i32 %160, ptr %161, align 4, !tbaa !11
  %162 = load ptr, ptr %5, align 8, !tbaa !3
  %163 = getelementptr inbounds nuw %struct.lv_area_t, ptr %162, i32 0, i32 1
  %164 = load i32, ptr %163, align 4, !tbaa !11
  %165 = load i32, ptr %7, align 4, !tbaa !7
  %166 = add nsw i32 %164, %165
  %167 = getelementptr inbounds nuw %struct.lv_area_t, ptr %13, i32 0, i32 3
  store i32 %166, ptr %167, align 4, !tbaa !13
  %168 = load ptr, ptr %6, align 8, !tbaa !3
  %169 = call zeroext i1 @lv_area_is_point_on(ptr noundef %13, ptr noundef %168, i32 noundef 0)
  br i1 %169, label %170, label %181

170:                                              ; preds = %157
  %171 = load i32, ptr %7, align 4, !tbaa !7
  %172 = getelementptr inbounds nuw %struct.lv_area_t, ptr %13, i32 0, i32 0
  %173 = load i32, ptr %172, align 4, !tbaa !9
  %174 = sub nsw i32 %173, %171
  store i32 %174, ptr %172, align 4, !tbaa !9
  %175 = load i32, ptr %7, align 4, !tbaa !7
  %176 = getelementptr inbounds nuw %struct.lv_area_t, ptr %13, i32 0, i32 3
  %177 = load i32, ptr %176, align 4, !tbaa !13
  %178 = add nsw i32 %177, %175
  store i32 %178, ptr %176, align 4, !tbaa !13
  %179 = load ptr, ptr %6, align 8, !tbaa !3
  %180 = call zeroext i1 @lv_point_within_circle(ptr noundef %13, ptr noundef %179)
  store i1 %180, ptr %4, align 1
  store i32 1, ptr %9, align 4
  br label %182

181:                                              ; preds = %157
  store i1 true, ptr %4, align 1
  store i32 1, ptr %9, align 4
  br label %182

182:                                              ; preds = %181, %170, %146, %122, %98
  call void @llvm.lifetime.end.p0(i64 16, ptr %13) #5
  call void @llvm.lifetime.end.p0(i64 4, ptr %12) #5
  call void @llvm.lifetime.end.p0(i64 4, ptr %11) #5
  call void @llvm.lifetime.end.p0(i64 4, ptr %10) #5
  br label %183

183:                                              ; preds = %182, %53, %49
  call void @llvm.lifetime.end.p0(i64 1, ptr %8) #5
  %184 = load i1, ptr %4, align 1
  ret i1 %184
}