; Function Attrs: mustprogress nofree norecurse nosync nounwind willreturn memory(argmem: read) uwtable
define zeroext i1 @lv_area_is_point_on(ptr noundef readonly captures(none) %0, ptr noundef readonly captures(none) %1, i32 noundef %2) local_unnamed_addr #3 {
  %4 = load i32, ptr %1, align 4, !tbaa !12
  %5 = load i32, ptr %0, align 4, !tbaa !3
  %.not = icmp slt i32 %4, %5
  br i1 %.not, label %.critedge, label %6

6:                                                ; preds = %3
  %7 = getelementptr inbounds nuw i8, ptr %0, i64 8
  %8 = load i32, ptr %7, align 4, !tbaa !9
  %.not56 = icmp sgt i32 %4, %8
  br i1 %.not56, label %.critedge, label %9

9:                                                ; preds = %6
  %10 = getelementptr inbounds nuw i8, ptr %1, i64 4
  %11 = load i32, ptr %10, align 4, !tbaa !14
  %12 = getelementptr inbounds nuw i8, ptr %0, i64 4
  %13 = load i32, ptr %12, align 4, !tbaa !8
  %.not57 = icmp slt i32 %11, %13
  br i1 %.not57, label %.critedge, label %14

14:                                               ; preds = %9
  %15 = getelementptr inbounds nuw i8, ptr %0, i64 12
  %16 = load i32, ptr %15, align 4, !tbaa !10
  %.not58.not = icmp sgt i32 %11, %16
  br i1 %.not58.not, label %.critedge, label %17

17:                                               ; preds = %14
  %18 = icmp slt i32 %2, 1
  br i1 %18, label %.critedge, label %19

19:                                               ; preds = %17
  %reass.sub = sub i32 %8, %5
  %20 = add i32 %reass.sub, 1
  %21 = sdiv i32 %20, 2
  %reass.sub147 = sub i32 %16, %13
  %22 = add i32 %reass.sub147, 1
  %23 = sdiv i32 %22, 2
  %24 = tail call i32 @llvm.smin.i32(i32 %21, i32 %23)
  %spec.select59 = tail call i32 @llvm.smin.i32(i32 %2, i32 %24)
  %25 = add nsw i32 %spec.select59, %5
  %26 = add nsw i32 %spec.select59, %13
  %.not56.i = icmp sle i32 %4, %25
  %.not58.i = icmp sle i32 %11, %26
  %or.cond = select i1 %.not56.i, i1 %.not58.i, i1 false
  br i1 %or.cond, label %lv_area_is_point_on.exit, label %35

lv_area_is_point_on.exit:                         ; preds = %19
  %27 = add i32 %5, %spec.select59
  %28 = sub i32 %4, %27
  %29 = add i32 %13, %spec.select59
  %30 = sub i32 %11, %29
  %31 = mul nsw i32 %spec.select59, %spec.select59
  %32 = mul nsw i32 %28, %28
  %33 = mul nsw i32 %30, %30
  %34 = add nuw nsw i32 %32, %33
  %.not.i67 = icmp samesign ule i32 %34, %31
  br label %.critedge

35:                                               ; preds = %19
  %36 = sub nsw i32 %16, %spec.select59
  %.not56.i69 = icmp sgt i32 %4, %25
  %.not57.i70 = icmp slt i32 %11, %36
  %or.cond128 = select i1 %.not56.i69, i1 true, i1 %.not57.i70
  br i1 %or.cond128, label %44, label %lv_area_is_point_on.exit74

lv_area_is_point_on.exit74:                       ; preds = %35
  %37 = add i32 %5, %spec.select59
  %38 = sub i32 %4, %37
  %.neg133 = add i32 %spec.select59, %11
  %39 = sub i32 %.neg133, %16
  %40 = mul nsw i32 %spec.select59, %spec.select59
  %41 = mul nsw i32 %38, %38
  %42 = mul nsw i32 %39, %39
  %43 = add nuw nsw i32 %41, %42
  %.not.i75 = icmp samesign ule i32 %43, %40
  br label %.critedge

44:                                               ; preds = %35
  %45 = sub nsw i32 %8, %spec.select59
  %.not.i76 = icmp slt i32 %4, %45
  br i1 %.not.i76, label %.critedge, label %46

46:                                               ; preds = %44
  br i1 %.not57.i70, label %58, label %lv_area_is_point_on.exit82

lv_area_is_point_on.exit82:                       ; preds = %46
  %47 = sub nsw i32 %45, %spec.select59
  %48 = sub nsw i32 %8, %47
  %49 = sdiv i32 %48, 2
  %50 = add i32 %47, %49
  %51 = sub i32 %4, %50
  %.neg138 = add i32 %spec.select59, %11
  %52 = add i32 %36, %49
  %53 = sub i32 %.neg138, %52
  %54 = mul nsw i32 %49, %49
  %55 = mul nsw i32 %51, %51
  %56 = mul nsw i32 %53, %53
  %57 = add nuw nsw i32 %55, %56
  %.not.i83 = icmp samesign ule i32 %57, %54
  br label %.critedge

58:                                               ; preds = %46
  %.not58.i87.not = icmp sgt i32 %11, %26
  br i1 %.not58.i87.not, label %.critedge, label %lv_area_is_point_on.exit90

lv_area_is_point_on.exit90:                       ; preds = %58
  %59 = sub nsw i32 %45, %spec.select59
  %60 = sub nsw i32 %8, %59
  %61 = sdiv i32 %60, 2
  %62 = add i32 %59, %61
  %63 = sub i32 %4, %62
  %64 = add i32 %13, %61
  %65 = sub i32 %11, %64
  %66 = mul nsw i32 %61, %61
  %67 = mul nsw i32 %63, %63
  %68 = mul nsw i32 %65, %65
  %69 = add nuw nsw i32 %67, %68
  %.not.i91 = icmp samesign ule i32 %69, %66
  br label %.critedge

.critedge:                                        ; preds = %44, %58, %lv_area_is_point_on.exit, %lv_area_is_point_on.exit74, %lv_area_is_point_on.exit82, %lv_area_is_point_on.exit90, %9, %6, %3, %17, %14
  %.0 = phi i1 [ false, %14 ], [ true, %17 ], [ false, %3 ], [ false, %6 ], [ false, %9 ], [ %.not.i67, %lv_area_is_point_on.exit ], [ %.not.i75, %lv_area_is_point_on.exit74 ], [ %.not.i83, %lv_area_is_point_on.exit82 ], [ %.not.i91, %lv_area_is_point_on.exit90 ], [ true, %58 ], [ true, %44 ]
  ret i1 %.0
}